target datalayout = "e-m:e-p270:32:32-p271:32:32-p272:64:64-i64:64-i128:128-f80:128-n8:16:32:64-S128"
target triple = "x86_64-unknown-linux-gnu"

%"class.net::HpackOutputStream" = type { %"class.std::__cxx11::basic_string", i64 }
%"class.std::__cxx11::basic_string" = type { %"struct.std::__cxx11::basic_string<char>::_Alloc_hider", i64, %union.anon }
%"struct.std::__cxx11::basic_string<char>::_Alloc_hider" = type { ptr }
%union.anon = type { i64, [8 x i8] }
%"class.logging::CheckOpResult" = type { ptr }
%"class.logging::LogMessage" = type <{ i32, [4 x i8], %"class.std::__cxx11::basic_ostringstream", i64, ptr, i32, [4 x i8] }>
%"class.std::__cxx11::basic_ostringstream" = type { %"class.std::basic_ostream.base", %"class.std::__cxx11::basic_stringbuf", %"class.std::basic_ios" }
%"class.std::basic_ostream.base" = type { ptr }
%"class.std::__cxx11::basic_stringbuf" = type { %"class.std::basic_streambuf", i32, %"class.std::__cxx11::basic_string" }
%"class.std::basic_streambuf" = type { ptr, ptr, ptr, ptr, ptr, ptr, ptr, %"class.std::locale" }
%"class.std::locale" = type { ptr }
%"class.std::basic_ios" = type { %"class.std::ios_base", ptr, i8, i8, ptr, ptr, ptr, ptr }
%"class.std::ios_base" = type { ptr, i64, i64, i32, i32, i32, ptr, %"struct.std::ios_base::_Words", [8 x %"struct.std::ios_base::_Words"], i32, ptr, %"class.std::locale" }
%"struct.std::ios_base::_Words" = type { ptr, i64 }
%"class.std::reverse_iterator" = type { %"class.__gnu_cxx::__normal_iterator" }
%"class.__gnu_cxx::__normal_iterator" = type { ptr }

@.str = private unnamed_addr constant [135 x i8] c"generated/home/dtcxzyw/WorkSpace/Projects/compilers/llvm-opt-benchmark/bench/libquic/libquic/src/net/spdy/hpack/hpack_output_stream.cc\00", align 1

; Function Attrs: mustprogress nounwind uwtable
define linkonce_odr dso_local noundef nonnull align 1 dereferenceable(1) ptr @_ZNK9__gnu_cxx17__normal_iteratorIPcNSt7__cxx1112basic_stringIcSt11char_traitsIcESaIcEEEEdeEv(ptr noundef nonnull align 8 dereferenceable(8) %this) #0 comdat align 2 {
entry:
  %this.addr = alloca ptr, align 8
  store ptr %this, ptr %this.addr, align 8
  %this1 = load ptr, ptr %this.addr, align 8
  %_M_current = getelementptr inbounds %"class.__gnu_cxx::__normal_iterator", ptr %this1, i32 0, i32 0
  %0 = load ptr, ptr %_M_current, align 8
  ret ptr %0
}

; Function Attrs: mustprogress nounwind uwtable
define linkonce_odr dso_local noundef nonnull align 8 dereferenceable(8) ptr @_ZN9__gnu_cxx17__normal_iteratorIPcNSt7__cxx1112basic_stringIcSt11char_traitsIcESaIcEEEEmmEv(ptr noundef nonnull align 8 dereferenceable(8) %this) #0 comdat align 2 {
entry:
  %this.addr = alloca ptr, align 8
  store ptr %this, ptr %this.addr, align 8
  %this1 = load ptr, ptr %this.addr, align 8
  %_M_current = getelementptr inbounds %"class.__gnu_cxx::__normal_iterator", ptr %this1, i32 0, i32 0
  %0 = load ptr, ptr %_M_current, align 8
  %incdec.ptr = getelementptr inbounds i8, ptr %0, i32 -1
  store ptr %incdec.ptr, ptr %_M_current, align 8
  ret ptr %this1
}

; Function Attrs: mustprogress nounwind uwtable
define linkonce_odr dso_local noundef nonnull align 1 dereferenceable(1) ptr @_ZNKSt16reverse_iteratorIN9__gnu_cxx17__normal_iteratorIPcNSt7__cxx1112basic_stringIcSt11char_traitsIcESaIcEEEEEEdeEv(ptr noundef nonnull align 8 dereferenceable(8) %this) #0 comdat align 2 {
entry:
  %this.addr = alloca ptr, align 8
  %__tmp = alloca %"class.__gnu_cxx::__normal_iterator", align 8
  store ptr %this, ptr %this.addr, align 8
  %this1 = load ptr, ptr %this.addr, align 8
  %current = getelementptr inbounds %"class.std::reverse_iterator", ptr %this1, i32 0, i32 0
  call void @llvm.memcpy.p0.p0.i64(ptr align 8 %__tmp, ptr align 8 %current, i64 8, i1 false)
  %call = call noundef nonnull align 8 dereferenceable(8) ptr @_ZN9__gnu_cxx17__normal_iteratorIPcNSt7__cxx1112basic_stringIcSt11char_traitsIcESaIcEEEEmmEv(ptr noundef nonnull align 8 dereferenceable(8) %__tmp) #5
  %call2 = call noundef nonnull align 1 dereferenceable(1) ptr @_ZNK9__gnu_cxx17__normal_iteratorIPcNSt7__cxx1112basic_stringIcSt11char_traitsIcESaIcEEEEdeEv(ptr noundef nonnull align 8 dereferenceable(8) %call) #5
  ret ptr %call2
}

; Function Attrs: mustprogress nounwind uwtable
define linkonce_odr dso_local noundef nonnull align 8 dereferenceable(8) ptr @_ZN7logging10LogMessage6streamEv(ptr noundef nonnull align 8 dereferenceable(404) %this) #0 comdat align 2 {
entry:
  %this.addr = alloca ptr, align 8
  store ptr %this, ptr %this.addr, align 8
  %this1 = load ptr, ptr %this.addr, align 8
  %stream_ = getelementptr inbounds %"class.logging::LogMessage", ptr %this1, i32 0, i32 2
  ret ptr %stream_
}

; Function Attrs: mustprogress nounwind uwtable
define linkonce_odr dso_local noundef ptr @_ZN7logging13CheckOpResult7messageB5cxx11Ev(ptr noundef nonnull align 8 dereferenceable(8) %this) #0 comdat align 2 {
entry:
  %this.addr = alloca ptr, align 8
  store ptr %this, ptr %this.addr, align 8
  %this1 = load ptr, ptr %this.addr, align 8
  %message_ = getelementptr inbounds %"class.logging::CheckOpResult", ptr %this1, i32 0, i32 0
  %0 = load ptr, ptr %message_, align 8
  ret ptr %0
}

; Function Attrs: mustprogress nounwind uwtable
define linkonce_odr dso_local noundef zeroext i1 @_ZNK7logging13CheckOpResultcvbEv(ptr noundef nonnull align 8 dereferenceable(8) %this) #0 comdat align 2 {
entry:
  %this.addr = alloca ptr, align 8
  store ptr %this, ptr %this.addr, align 8
  %this1 = load ptr, ptr %this.addr, align 8
  %message_ = getelementptr inbounds %"class.logging::CheckOpResult", ptr %this1, i32 0, i32 0
  %0 = load ptr, ptr %message_, align 8
  %tobool = icmp ne ptr %0, null
  %lnot = xor i1 %tobool, true
  ret i1 %lnot
}

; Function Attrs: mustprogress nounwind uwtable
define linkonce_odr dso_local void @_ZN7logging13CheckOpResultC2EPNSt7__cxx1112basic_stringIcSt11char_traitsIcESaIcEEE(ptr noundef nonnull align 8 dereferenceable(8) %this, ptr noundef %message) unnamed_addr #0 comdat align 2 {
entry:
  %this.addr = alloca ptr, align 8
  %message.addr = alloca ptr, align 8
  store ptr %this, ptr %this.addr, align 8
  store ptr %message, ptr %message.addr, align 8
  %this1 = load ptr, ptr %this.addr, align 8
  %message_ = getelementptr inbounds %"class.logging::CheckOpResult", ptr %this1, i32 0, i32 0
  %0 = load ptr, ptr %message.addr, align 8
  store ptr %0, ptr %message_, align 8
  ret void
}

; Function Attrs: mustprogress uwtable
define dso_local void @_ZN3net17HpackOutputStream10AppendBitsEhm(ptr noundef nonnull align 8 dereferenceable(40) %this, i8 noundef zeroext %bits, i64 noundef %bit_size) #2 align 2 personality ptr @__gxx_personality_v0 {
entry:
  %this.addr = alloca ptr, align 8
  %bits.addr = alloca i8, align 1
  %bit_size.addr = alloca i64, align 8
  %true_if_passed = alloca %"class.logging::CheckOpResult", align 8
  %ref.tmp = alloca %"class.logging::LogMessage", align 8
  %exn.slot = alloca ptr, align 8
  %ehselector.slot = alloca i32, align 4
  %true_if_passed4 = alloca %"class.logging::CheckOpResult", align 8
  %ref.tmp8 = alloca %"class.logging::LogMessage", align 8
  %true_if_passed14 = alloca %"class.logging::CheckOpResult", align 8
  %ref.tmp18 = alloca %"class.logging::LogMessage", align 8
  %new_bit_offset = alloca i64, align 8
  %true_if_passed26 = alloca %"class.logging::CheckOpResult", align 8
  %ref.tmp30 = alloca %"class.logging::LogMessage", align 8
  %ref.tmp45 = alloca %"class.std::reverse_iterator", align 8
  %ref.tmp54 = alloca %"class.std::reverse_iterator", align 8
  store ptr %this, ptr %this.addr, align 8
  store i8 %bits, ptr %bits.addr, align 1
  store i64 %bit_size, ptr %bit_size.addr, align 8
  %this1 = load ptr, ptr %this.addr, align 8
  call void @_ZN7logging13CheckOpResultC2EPNSt7__cxx1112basic_stringIcSt11char_traitsIcESaIcEEE(ptr noundef nonnull align 8 dereferenceable(8) %true_if_passed, ptr noundef null)
  %call = call noundef zeroext i1 @_ZNK7logging13CheckOpResultcvbEv(ptr noundef nonnull align 8 dereferenceable(8) %true_if_passed)
  br i1 %call, label %if.then, label %if.else

if.then:                                          ; preds = %entry
  br label %if.end

if.else:                                          ; preds = %entry
  %call2 = call noundef ptr @_ZN7logging13CheckOpResult7messageB5cxx11Ev(ptr noundef nonnull align 8 dereferenceable(8) %true_if_passed)
  call void @_ZN7logging10LogMessageC1EPKciiPNSt7__cxx1112basic_stringIcSt11char_traitsIcESaIcEEE(ptr noundef nonnull align 8 dereferenceable(404) %ref.tmp, ptr noundef @.str, i32 noundef 19, i32 noundef 0, ptr noundef %call2)
  %call3 = invoke noundef nonnull align 8 dereferenceable(8) ptr @_ZN7logging10LogMessage6streamEv(ptr noundef nonnull align 8 dereferenceable(404) %ref.tmp)
          to label %invoke.cont unwind label %lpad

invoke.cont:                                      ; preds = %if.else
  call void @_ZN7logging10LogMessageD1Ev(ptr noundef nonnull align 8 dereferenceable(404) %ref.tmp) #5
  br label %if.end

lpad:                                             ; preds = %if.else
  %0 = landingpad { ptr, i32 }
          cleanup
  %1 = extractvalue { ptr, i32 } %0, 0
  store ptr %1, ptr %exn.slot, align 8
  %2 = extractvalue { ptr, i32 } %0, 1
  store i32 %2, ptr %ehselector.slot, align 4
  call void @_ZN7logging10LogMessageD1Ev(ptr noundef nonnull align 8 dereferenceable(404) %ref.tmp) #5
  br label %eh.resume

if.end:                                           ; preds = %invoke.cont, %if.then
  call void @_ZN7logging13CheckOpResultC2EPNSt7__cxx1112basic_stringIcSt11char_traitsIcESaIcEEE(ptr noundef nonnull align 8 dereferenceable(8) %true_if_passed4, ptr noundef null)
  %call5 = call noundef zeroext i1 @_ZNK7logging13CheckOpResultcvbEv(ptr noundef nonnull align 8 dereferenceable(8) %true_if_passed4)
  br i1 %call5, label %if.then6, label %if.else7

if.then6:                                         ; preds = %if.end
  br label %if.end13

if.else7:                                         ; preds = %if.end
  %call9 = call noundef ptr @_ZN7logging13CheckOpResult7messageB5cxx11Ev(ptr noundef nonnull align 8 dereferenceable(8) %true_if_passed4)
  call void @_ZN7logging10LogMessageC1EPKciiPNSt7__cxx1112basic_stringIcSt11char_traitsIcESaIcEEE(ptr noundef nonnull align 8 dereferenceable(404) %ref.tmp8, ptr noundef @.str, i32 noundef 20, i32 noundef 0, ptr noundef %call9)
  %call12 = invoke noundef nonnull align 8 dereferenceable(8) ptr @_ZN7logging10LogMessage6streamEv(ptr noundef nonnull align 8 dereferenceable(404) %ref.tmp8)
          to label %invoke.cont11 unwind label %lpad10

invoke.cont11:                                    ; preds = %if.else7
  call void @_ZN7logging10LogMessageD1Ev(ptr noundef nonnull align 8 dereferenceable(404) %ref.tmp8) #5
  br label %if.end13

lpad10:                                           ; preds = %if.else7
  %3 = landingpad { ptr, i32 }
          cleanup
  %4 = extractvalue { ptr, i32 } %3, 0
  store ptr %4, ptr %exn.slot, align 8
  %5 = extractvalue { ptr, i32 } %3, 1
  store i32 %5, ptr %ehselector.slot, align 4
  call void @_ZN7logging10LogMessageD1Ev(ptr noundef nonnull align 8 dereferenceable(404) %ref.tmp8) #5
  br label %eh.resume

if.end13:                                         ; preds = %invoke.cont11, %if.then6
  call void @_ZN7logging13CheckOpResultC2EPNSt7__cxx1112basic_stringIcSt11char_traitsIcESaIcEEE(ptr noundef nonnull align 8 dereferenceable(8) %true_if_passed14, ptr noundef null)
  %call15 = call noundef zeroext i1 @_ZNK7logging13CheckOpResultcvbEv(ptr noundef nonnull align 8 dereferenceable(8) %true_if_passed14)
  br i1 %call15, label %if.then16, label %if.else17

if.then16:                                        ; preds = %if.end13
  br label %if.end23

if.else17:                                        ; preds = %if.end13
  %call19 = call noundef ptr @_ZN7logging13CheckOpResult7messageB5cxx11Ev(ptr noundef nonnull align 8 dereferenceable(8) %true_if_passed14)
  call void @_ZN7logging10LogMessageC1EPKciiPNSt7__cxx1112basic_stringIcSt11char_traitsIcESaIcEEE(ptr noundef nonnull align 8 dereferenceable(404) %ref.tmp18, ptr noundef @.str, i32 noundef 21, i32 noundef 0, ptr noundef %call19)
  %call22 = invoke noundef nonnull align 8 dereferenceable(8) ptr @_ZN7logging10LogMessage6streamEv(ptr noundef nonnull align 8 dereferenceable(404) %ref.tmp18)
          to label %invoke.cont21 unwind label %lpad20

invoke.cont21:                                    ; preds = %if.else17
  call void @_ZN7logging10LogMessageD1Ev(ptr noundef nonnull align 8 dereferenceable(404) %ref.tmp18) #5
  br label %if.end23

lpad20:                                           ; preds = %if.else17
  %6 = landingpad { ptr, i32 }
          cleanup
  %7 = extractvalue { ptr, i32 } %6, 0
  store ptr %7, ptr %exn.slot, align 8
  %8 = extractvalue { ptr, i32 } %6, 1
  store i32 %8, ptr %ehselector.slot, align 4
  call void @_ZN7logging10LogMessageD1Ev(ptr noundef nonnull align 8 dereferenceable(404) %ref.tmp18) #5
  br label %eh.resume

if.end23:                                         ; preds = %invoke.cont21, %if.then16
  %bit_offset_ = getelementptr inbounds %"class.net::HpackOutputStream", ptr %this1, i32 0, i32 1
  %9 = load i64, ptr %bit_offset_, align 8
  %10 = load i64, ptr %bit_size.addr, align 8
  %add = add i64 %9, %10
  store i64 %add, ptr %new_bit_offset, align 8
  %bit_offset_24 = getelementptr inbounds %"class.net::HpackOutputStream", ptr %this1, i32 0, i32 1
  %11 = load i64, ptr %bit_offset_24, align 8
  %cmp = icmp eq i64 %11, 0
  br i1 %cmp, label %if.then25, label %if.else38

if.then25:                                        ; preds = %if.end23
  call void @_ZN7logging13CheckOpResultC2EPNSt7__cxx1112basic_stringIcSt11char_traitsIcESaIcEEE(ptr noundef nonnull align 8 dereferenceable(8) %true_if_passed26, ptr noundef null)
  %call27 = call noundef zeroext i1 @_ZNK7logging13CheckOpResultcvbEv(ptr noundef nonnull align 8 dereferenceable(8) %true_if_passed26)
  br i1 %call27, label %if.then28, label %if.else29

if.then28:                                        ; preds = %if.then25
  br label %if.end35

if.else29:                                        ; preds = %if.then25
  %call31 = call noundef ptr @_ZN7logging13CheckOpResult7messageB5cxx11Ev(ptr noundef nonnull align 8 dereferenceable(8) %true_if_passed26)
  call void @_ZN7logging10LogMessageC1EPKciiPNSt7__cxx1112basic_stringIcSt11char_traitsIcESaIcEEE(ptr noundef nonnull align 8 dereferenceable(404) %ref.tmp30, ptr noundef @.str, i32 noundef 25, i32 noundef 0, ptr noundef %call31)
  %call34 = invoke noundef nonnull align 8 dereferenceable(8) ptr @_ZN7logging10LogMessage6streamEv(ptr noundef nonnull align 8 dereferenceable(404) %ref.tmp30)
          to label %invoke.cont33 unwind label %lpad32

invoke.cont33:                                    ; preds = %if.else29
  call void @_ZN7logging10LogMessageD1Ev(ptr noundef nonnull align 8 dereferenceable(404) %ref.tmp30) #5
  br label %if.end35

lpad32:                                           ; preds = %if.else29
  %12 = landingpad { ptr, i32 }
          cleanup
  %13 = extractvalue { ptr, i32 } %12, 0
  store ptr %13, ptr %exn.slot, align 8
  %14 = extractvalue { ptr, i32 } %12, 1
  store i32 %14, ptr %ehselector.slot, align 4
  call void @_ZN7logging10LogMessageD1Ev(ptr noundef nonnull align 8 dereferenceable(404) %ref.tmp30) #5
  br label %eh.resume

if.end35:                                         ; preds = %invoke.cont33, %if.then28
  %buffer_ = getelementptr inbounds %"class.net::HpackOutputStream", ptr %this1, i32 0, i32 0
  %15 = load i8, ptr %bits.addr, align 1
  %conv = zext i8 %15 to i32
  %16 = load i64, ptr %bit_size.addr, align 8
  %sub = sub i64 8, %16
  %sh_prom = trunc i64 %sub to i32
  %shl = shl i32 %conv, %sh_prom
  %conv36 = trunc i32 %shl to i8
  %call37 = call noundef nonnull align 8 dereferenceable(32) ptr @_ZNSt7__cxx1112basic_stringIcSt11char_traitsIcESaIcEE6appendEmc(ptr noundef nonnull align 8 dereferenceable(32) %buffer_, i64 noundef 1, i8 noundef signext %conv36)
  br label %if.end68

if.else38:                                        ; preds = %if.end23
  %17 = load i64, ptr %new_bit_offset, align 8
  %cmp39 = icmp ule i64 %17, 8
  br i1 %cmp39, label %if.then40, label %if.else50

if.then40:                                        ; preds = %if.else38
  %18 = load i8, ptr %bits.addr, align 1
  %conv41 = zext i8 %18 to i32
  %19 = load i64, ptr %new_bit_offset, align 8
  %sub42 = sub i64 8, %19
  %sh_prom43 = trunc i64 %sub42 to i32
  %shl44 = shl i32 %conv41, %sh_prom43
  %buffer_46 = getelementptr inbounds %"class.net::HpackOutputStream", ptr %this1, i32 0, i32 0
  call void @_ZNSt7__cxx1112basic_stringIcSt11char_traitsIcESaIcEE6rbeginEv(ptr sret(%"class.std::reverse_iterator") align 8 %ref.tmp45, ptr noundef nonnull align 8 dereferenceable(32) %buffer_46) #5
  %call47 = call noundef nonnull align 1 dereferenceable(1) ptr @_ZNKSt16reverse_iteratorIN9__gnu_cxx17__normal_iteratorIPcNSt7__cxx1112basic_stringIcSt11char_traitsIcESaIcEEEEEEdeEv(ptr noundef nonnull align 8 dereferenceable(8) %ref.tmp45)
  %20 = load i8, ptr %call47, align 1
  %conv48 = sext i8 %20 to i32
  %or = or i32 %conv48, %shl44
  %conv49 = trunc i32 %or to i8
  store i8 %conv49, ptr %call47, align 1
  br label %if.end67

if.else50:                                        ; preds = %if.else38
  %21 = load i8, ptr %bits.addr, align 1
  %conv51 = zext i8 %21 to i32
  %22 = load i64, ptr %new_bit_offset, align 8
  %sub52 = sub i64 %22, 8
  %sh_prom53 = trunc i64 %sub52 to i32
  %shr = ashr i32 %conv51, %sh_prom53
  %buffer_55 = getelementptr inbounds %"class.net::HpackOutputStream", ptr %this1, i32 0, i32 0
  call void @_ZNSt7__cxx1112basic_stringIcSt11char_traitsIcESaIcEE6rbeginEv(ptr sret(%"class.std::reverse_iterator") align 8 %ref.tmp54, ptr noundef nonnull align 8 dereferenceable(32) %buffer_55) #5
  %call56 = call noundef nonnull align 1 dereferenceable(1) ptr @_ZNKSt16reverse_iteratorIN9__gnu_cxx17__normal_iteratorIPcNSt7__cxx1112basic_stringIcSt11char_traitsIcESaIcEEEEEEdeEv(ptr noundef nonnull align 8 dereferenceable(8) %ref.tmp54)
  %23 = load i8, ptr %call56, align 1
  %conv57 = sext i8 %23 to i32
  %or58 = or i32 %conv57, %shr
  %conv59 = trunc i32 %or58 to i8
  store i8 %conv59, ptr %call56, align 1
  %buffer_60 = getelementptr inbounds %"class.net::HpackOutputStream", ptr %this1, i32 0, i32 0
  %24 = load i8, ptr %bits.addr, align 1
  %conv61 = zext i8 %24 to i32
  %25 = load i64, ptr %new_bit_offset, align 8
  %sub62 = sub i64 16, %25
  %sh_prom63 = trunc i64 %sub62 to i32
  %shl64 = shl i32 %conv61, %sh_prom63
  %conv65 = trunc i32 %shl64 to i8
  %call66 = call noundef nonnull align 8 dereferenceable(32) ptr @_ZNSt7__cxx1112basic_stringIcSt11char_traitsIcESaIcEE6appendEmc(ptr noundef nonnull align 8 dereferenceable(32) %buffer_60, i64 noundef 1, i8 noundef signext %conv65)
  br label %if.end67

if.end67:                                         ; preds = %if.else50, %if.then40
  br label %if.end68

if.end68:                                         ; preds = %if.end67, %if.end35
  %26 = load i64, ptr %new_bit_offset, align 8
  %rem = urem i64 %26, 8
  %bit_offset_69 = getelementptr inbounds %"class.net::HpackOutputStream", ptr %this1, i32 0, i32 1
  store i64 %rem, ptr %bit_offset_69, align 8
  ret void

eh.resume:                                        ; preds = %lpad32, %lpad20, %lpad10, %lpad
  %exn = load ptr, ptr %exn.slot, align 8
  %sel = load i32, ptr %ehselector.slot, align 4
  %lpad.val = insertvalue { ptr, i32 } poison, ptr %exn, 0
  %lpad.val70 = insertvalue { ptr, i32 } %lpad.val, i32 %sel, 1
  resume { ptr, i32 } %lpad.val70
}